crobot.utils.dotdict
DotDict
p0
((lp1
(lp2
VuserId
p3
aVudes6b3Pkb
p4
aa(lp5
Viid
p6
aV1314144
p7
aa(lp8
ValipayUserId
p9
aV2088802650971848
p10
aa(lp11
ValipayAccount
p12
aV13575730431
p13
aa(lp14
VsalespersonId
p15
aV4jqXokl
p16
aa(lp17
VorderId
p18
aI407891
aatp19
Rp20
.