crobot.utils.dotdict
DotDict
p0
((lp1
(lp2
VuserId
p3
aVudes6b3Pkb
p4
aa(lp5
Viid
p6
aV1314144
p7
aa(lp8
Vtoken
p9
aV81fFk4_udes6b3Pkb
p10
aa(lp11
ValipayUserId
p12
aV2088802650971848
p13
aa(lp14
ValipayAccount
p15
aV13575730431
p16
aa(lp17
VsalespersonId
p18
aVLaM7ZYxocq
p19
aa(lp20
VorderId
p21
aI908381
aa(lp22
VtaskId
p23
aV270072
p24
aa(lp25
VorderCode
p26
aV521718269021
p27
aa(lp28
Vvin
p29
aVLVSHCADB4GE557683
p30
aatp31
Rp32
.